; Function Attrs: nounwind uwtable
define internal i32 @SpoolssEnumPrinterDataEx_q(ptr noundef %0, i32 noundef %1, ptr noundef %2, ptr noundef %3, ptr noundef %4, ptr noundef %5) #0 {
  %7 = alloca ptr, align 8
  %8 = load i32, ptr @hf_printerdata, align 4
  %9 = tail call ptr @proto_tree_add_uint(ptr noundef %3, i32 noundef %8, ptr noundef %0, i32 noundef %1, i32 noundef 0, i32 noundef 1) #5
  %.not.i = icmp eq ptr %9, null
  br i1 %.not.i, label %proto_item_set_hidden.exit, label %10

10:                                               ; preds = %6
  %11 = getelementptr inbounds nuw i8, ptr %9, i64 32
  %12 = load ptr, ptr %11, align 8
  %.not5.i = icmp eq ptr %12, null
  br i1 %.not5.i, label %proto_item_set_hidden.exit, label %13

13:                                               ; preds = %10
  %14 = getelementptr inbounds nuw i8, ptr %12, i64 28
  %15 = load i32, ptr %14, align 4
  %16 = or i32 %15, 1
  store i32 %16, ptr %14, align 4
  br label %proto_item_set_hidden.exit

proto_item_set_hidden.exit:                       ; preds = %6, %10, %13
  %17 = load i32, ptr @hf_hnd, align 4
  %18 = tail call i32 @dissect_nt_policy_hnd(ptr noundef %0, i32 noundef %1, ptr noundef %2, ptr noundef %3, ptr noundef %4, ptr noundef %5, i32 noundef %17, ptr noundef null, ptr noundef null, i32 noundef 0, i32 noundef 0) #5
  %19 = load i32, ptr @hf_printerdata_key, align 4
  %20 = call i32 @dissect_ndr_cvstring(ptr noundef %0, i32 noundef %18, ptr noundef %2, ptr noundef %3, ptr noundef %4, ptr noundef %5, i32 noundef 2, i32 noundef %19, i32 noundef 1, ptr noundef nonnull %7) #5
  %21 = getelementptr inbounds nuw i8, ptr %2, i64 8
  %22 = load ptr, ptr %21, align 8
  %23 = load ptr, ptr %7, align 8
  call void (ptr, i32, ptr, ...) @col_append_fstr(ptr noundef %22, i32 noundef 25, ptr noundef nonnull @.str.1228, ptr noundef %23) #5
  %24 = load i32, ptr @hf_offered, align 4
  %25 = call i32 @dissect_ndr_uint32(ptr noundef %0, i32 noundef %20, ptr noundef %2, ptr noundef %3, ptr noundef %4, ptr noundef %5, i32 noundef %24, ptr noundef null) #5
  ret i32 %25
}